((lp1
(S'dry zone (center)'
cnumpy.core.multiarray
scalar
p2
(cnumpy
dtype
p3
(S'f8'
I0
I1
tRp4
(I3
S'<'
NNNI-1
I-1
I0
tbS'/i\x01\xad\x90A2@'
tRp5
tp6
a(S'dry zone\n(south+north)'
g2
(g4
S'\xf1%\xb9\xab\xff\xbb\xa9\xbf'
tRp7
tp8
a(lp9
(S'lagoon'
p10
g2
(g4
S'\x0f`\xf0\x94\x04<&@'
tRp11
tp12
a(S'dune lake'
g2
(g4
S'sM\xf9\xf1\xf7\x18#@'
tRp13
tp14
a(S'dunes'
p15
g2
(g4
S'j&>r6l3@'
tRp16
tp17
at.