((lp1
(S'dry beach (center)'
p2
cnumpy.core.multiarray
scalar
p3
(cnumpy
dtype
p4
(S'f8'
I0
I1
tRp5
(I3
S'<'
NNNI-1
I-1
I0
tbS'gT\xaf$\x9a62@'
tRp6
tp7
a(S'dry beach\n(south)'
p8
g3
(g5
S'\x1a&\xb9\xab\xff\xbb\xa9\xbf'
tRp9
tp10
a(lp11
(S'lagoon'
p12
g3
(g5
S'\x08`\xf0\x94\x04<&@'
tRp13
tp14
a(S'dune lake'
p15
g3
(g5
S'wM\xf9\xf1\xf7\x18#@'
tRp16
tp17
a(S'dunes'
p18
g3
(g5
S'\xee/\xe4\x90\xc7\\3@'
tRp19
tp20
at.